target datalayout = "e-m:e-p270:32:32-p271:32:32-p272:64:64-i64:64-i128:128-f80:128-n8:16:32:64-S128"
target triple = "x86_64-pc-linux-gnu"

; Function Attrs: nounwind uwtable
define internal i32 @rsa_blinding_convert(ptr noundef %0, ptr noundef %1, ptr noundef %2, ptr noundef %3) #0 {
  %5 = alloca i32, align 4
  %6 = alloca ptr, align 8
  %7 = alloca ptr, align 8
  %8 = alloca ptr, align 8
  %9 = alloca ptr, align 8
  %10 = alloca i32, align 4
  %11 = alloca i32, align 4
  store ptr %0, ptr %6, align 8, !tbaa !41
  store ptr %1, ptr %7, align 8, !tbaa !32
  store ptr %2, ptr %8, align 8, !tbaa !32
  store ptr %3, ptr %9, align 8, !tbaa !14
  %12 = load ptr, ptr %8, align 8, !tbaa !32
  %13 = icmp eq ptr %12, null
  br i1 %13, label %14, label %19

14:                                               ; preds = %4
  %15 = load ptr, ptr %7, align 8, !tbaa !32
  %16 = load ptr, ptr %6, align 8, !tbaa !41
  %17 = load ptr, ptr %9, align 8, !tbaa !14
  %18 = call i32 @BN_BLINDING_convert_ex(ptr noundef %15, ptr noundef null, ptr noundef %16, ptr noundef %17)
  store i32 %18, ptr %5, align 4
  br label %34

19:                                               ; preds = %4
  call void @llvm.lifetime.start.p0(i64 4, ptr %10) #6
  %20 = load ptr, ptr %6, align 8, !tbaa !41
  %21 = call i32 @BN_BLINDING_lock(ptr noundef %20)
  %22 = icmp ne i32 %21, 0
  br i1 %22, label %24, label %23

23:                                               ; preds = %19
  store i32 0, ptr %5, align 4
  store i32 1, ptr %11, align 4
  br label %33

24:                                               ; preds = %19
  %25 = load ptr, ptr %7, align 8, !tbaa !32
  %26 = load ptr, ptr %8, align 8, !tbaa !32
  %27 = load ptr, ptr %6, align 8, !tbaa !41
  %28 = load ptr, ptr %9, align 8, !tbaa !14
  %29 = call i32 @BN_BLINDING_convert_ex(ptr noundef %25, ptr noundef %26, ptr noundef %27, ptr noundef %28)
  store i32 %29, ptr %10, align 4, !tbaa !8
  %30 = load ptr, ptr %6, align 8, !tbaa !41
  %31 = call i32 @BN_BLINDING_unlock(ptr noundef %30)
  %32 = load i32, ptr %10, align 4, !tbaa !8
  store i32 %32, ptr %5, align 4
  store i32 1, ptr %11, align 4
  br label %33

33:                                               ; preds = %24, %23
  call void @llvm.lifetime.end.p0(i64 4, ptr %10) #6
  br label %34

34:                                               ; preds = %33, %14
  %35 = load i32, ptr %5, align 4
  ret i32 %35
}