; Function Attrs: nounwind uwtable
define internal fastcc i32 @rsa_blinding_convert(ptr noundef nonnull %0, ptr noundef %1, ptr noundef %2, ptr noundef nonnull %3) unnamed_addr #3 {
  %5 = icmp eq ptr %2, null
  br i1 %5, label %6, label %8

6:                                                ; preds = %4
  %7 = tail call i32 @BN_BLINDING_convert_ex(ptr noundef %1, ptr noundef null, ptr noundef nonnull %0, ptr noundef nonnull %3) #9
  br label %13

8:                                                ; preds = %4
  %9 = tail call i32 @BN_BLINDING_lock(ptr noundef nonnull %0) #9
  %.not = icmp eq i32 %9, 0
  br i1 %.not, label %13, label %10

10:                                               ; preds = %8
  %11 = tail call i32 @BN_BLINDING_convert_ex(ptr noundef %1, ptr noundef nonnull %2, ptr noundef nonnull %0, ptr noundef nonnull %3) #9
  %12 = tail call i32 @BN_BLINDING_unlock(ptr noundef nonnull %0) #9
  br label %13

13:                                               ; preds = %10, %8, %6
  %.0 = phi i32 [ %7, %6 ], [ %11, %10 ], [ 0, %8 ]
  ret i32 %.0
}